; Function Attrs: mustprogress nofree norecurse nosync nounwind memory(write, argmem: readwrite, inaccessiblemem: none) uwtable
define void @_ZN6duckdb11bss_encoder10WriteValueIfEEvRNS_10BssEncoderERKT_(ptr noundef nonnull align 8 captures(none) dereferenceable(48) %0, ptr noundef nonnull readonly align 4 captures(none) dereferenceable(4) %1) local_unnamed_addr #0 {
  %3 = getelementptr inbounds nuw i8, ptr %0, i64 32
  %4 = getelementptr inbounds nuw i8, ptr %0, i64 16
  br label %5

5:                                                ; preds = %5, %2
  %.05.i = phi i64 [ 0, %2 ], [ %14, %5 ]
  %6 = getelementptr inbounds nuw i8, ptr %1, i64 %.05.i
  %7 = load i8, ptr %6, align 1, !tbaa !3
  %8 = load ptr, ptr %3, align 8, !tbaa !6
  %9 = load i64, ptr %0, align 8, !tbaa !13
  %10 = mul i64 %9, %.05.i
  %11 = load i64, ptr %4, align 8, !tbaa !15
  %12 = getelementptr i8, ptr %8, i64 %10
  %13 = getelementptr i8, ptr %12, i64 %11
  store i8 %7, ptr %13, align 1, !tbaa !3
  %14 = add nuw nsw i64 %.05.i, 1
  %exitcond.not.i = icmp eq i64 %14, 4
  br i1 %exitcond.not.i, label %_ZN6duckdb10BssEncoder10WriteValueIfEEvRKT_.exit, label %5, !llvm.loop !16

_ZN6duckdb10BssEncoder10WriteValueIfEEvRKT_.exit: ; preds = %5
  %15 = load i64, ptr %4, align 8, !tbaa !15
  %16 = add i64 %15, 1
  store i64 %16, ptr %4, align 8, !tbaa !15
  ret void
}